target datalayout = "e-m:e-p270:32:32-p271:32:32-p272:64:64-i64:64-i128:128-f80:128-n8:16:32:64-S128"
target triple = "x86_64-pc-linux-gnu"

; Function Attrs: mustprogress nounwind uwtable
define internal noundef signext i8 @_ZL14prepareReorderPKhiPiPhS2_(ptr noundef %0, i32 noundef %1, ptr noundef %2, ptr noundef %3, ptr noundef %4) #4 {
  %6 = alloca i8, align 1
  %7 = alloca ptr, align 8
  %8 = alloca i32, align 4
  %9 = alloca ptr, align 8
  %10 = alloca ptr, align 8
  %11 = alloca ptr, align 8
  %12 = alloca i32, align 4
  %13 = alloca i8, align 1
  %14 = alloca i8, align 1
  %15 = alloca i8, align 1
  %16 = alloca i32, align 4
  store ptr %0, ptr %7, align 8, !tbaa !50
  store i32 %1, ptr %8, align 4, !tbaa !8
  store ptr %2, ptr %9, align 8, !tbaa !57
  store ptr %3, ptr %10, align 8, !tbaa !50
  store ptr %4, ptr %11, align 8, !tbaa !50
  call void @llvm.lifetime.start.p0(i64 4, ptr %12) #8
  call void @llvm.lifetime.start.p0(i64 1, ptr %13) #8
  call void @llvm.lifetime.start.p0(i64 1, ptr %14) #8
  call void @llvm.lifetime.start.p0(i64 1, ptr %15) #8
  %17 = load ptr, ptr %7, align 8, !tbaa !50
  %18 = icmp eq ptr %17, null
  br i1 %18, label %22, label %19

19:                                               ; preds = %5
  %20 = load i32, ptr %8, align 4, !tbaa !8
  %21 = icmp sle i32 %20, 0
  br i1 %21, label %22, label %23

22:                                               ; preds = %19, %5
  store i8 0, ptr %6, align 1
  store i32 1, ptr %16, align 4
  br label %74

23:                                               ; preds = %19
  store i8 126, ptr %14, align 1, !tbaa !51
  store i8 0, ptr %15, align 1, !tbaa !51
  %24 = load i32, ptr %8, align 4, !tbaa !8
  store i32 %24, ptr %12, align 4, !tbaa !8
  br label %25

25:                                               ; preds = %55, %23
  %26 = load i32, ptr %12, align 4, !tbaa !8
  %27 = icmp sgt i32 %26, 0
  br i1 %27, label %28, label %56

28:                                               ; preds = %25
  %29 = load ptr, ptr %7, align 8, !tbaa !50
  %30 = load i32, ptr %12, align 4, !tbaa !8
  %31 = add nsw i32 %30, -1
  store i32 %31, ptr %12, align 4, !tbaa !8
  %32 = sext i32 %31 to i64
  %33 = getelementptr inbounds i8, ptr %29, i64 %32
  %34 = load i8, ptr %33, align 1, !tbaa !51
  store i8 %34, ptr %13, align 1, !tbaa !51
  %35 = load i8, ptr %13, align 1, !tbaa !51
  %36 = zext i8 %35 to i32
  %37 = icmp sgt i32 %36, 126
  br i1 %37, label %38, label %39

38:                                               ; preds = %28
  store i8 0, ptr %6, align 1
  store i32 1, ptr %16, align 4
  br label %74

39:                                               ; preds = %28
  %40 = load i8, ptr %13, align 1, !tbaa !51
  %41 = zext i8 %40 to i32
  %42 = load i8, ptr %14, align 1, !tbaa !51
  %43 = zext i8 %42 to i32
  %44 = icmp slt i32 %41, %43
  br i1 %44, label %45, label %47

45:                                               ; preds = %39
  %46 = load i8, ptr %13, align 1, !tbaa !51
  store i8 %46, ptr %14, align 1, !tbaa !51
  br label %47

47:                                               ; preds = %45, %39
  %48 = load i8, ptr %13, align 1, !tbaa !51
  %49 = zext i8 %48 to i32
  %50 = load i8, ptr %15, align 1, !tbaa !51
  %51 = zext i8 %50 to i32
  %52 = icmp sgt i32 %49, %51
  br i1 %52, label %53, label %55

53:                                               ; preds = %47
  %54 = load i8, ptr %13, align 1, !tbaa !51
  store i8 %54, ptr %15, align 1, !tbaa !51
  br label %55

55:                                               ; preds = %53, %47
  br label %25, !llvm.loop !93

56:                                               ; preds = %25
  %57 = load i8, ptr %14, align 1, !tbaa !51
  %58 = load ptr, ptr %10, align 8, !tbaa !50
  store i8 %57, ptr %58, align 1, !tbaa !51
  %59 = load i8, ptr %15, align 1, !tbaa !51
  %60 = load ptr, ptr %11, align 8, !tbaa !50
  store i8 %59, ptr %60, align 1, !tbaa !51
  %61 = load i32, ptr %8, align 4, !tbaa !8
  store i32 %61, ptr %12, align 4, !tbaa !8
  br label %62

62:                                               ; preds = %65, %56
  %63 = load i32, ptr %12, align 4, !tbaa !8
  %64 = icmp sgt i32 %63, 0
  br i1 %64, label %65, label %73

65:                                               ; preds = %62
  %66 = load i32, ptr %12, align 4, !tbaa !8
  %67 = add nsw i32 %66, -1
  store i32 %67, ptr %12, align 4, !tbaa !8
  %68 = load i32, ptr %12, align 4, !tbaa !8
  %69 = load ptr, ptr %9, align 8, !tbaa !57
  %70 = load i32, ptr %12, align 4, !tbaa !8
  %71 = sext i32 %70 to i64
  %72 = getelementptr inbounds i32, ptr %69, i64 %71
  store i32 %68, ptr %72, align 4, !tbaa !8
  br label %62, !llvm.loop !94

73:                                               ; preds = %62
  store i8 1, ptr %6, align 1
  store i32 1, ptr %16, align 4
  br label %74

74:                                               ; preds = %73, %38, %22
  call void @llvm.lifetime.end.p0(i64 1, ptr %15) #8
  call void @llvm.lifetime.end.p0(i64 1, ptr %14) #8
  call void @llvm.lifetime.end.p0(i64 1, ptr %13) #8
  call void @llvm.lifetime.end.p0(i64 4, ptr %12) #8
  %75 = load i8, ptr %6, align 1
  ret i8 %75
}

; Function Attrs: mustprogress uwtable
define void @ubidi_reorderLogical_77(ptr noundef %0, i32 noundef %1, ptr noundef %2) #0 {
  %4 = alloca ptr, align 8
  %5 = alloca i32, align 4
  %6 = alloca ptr, align 8
  %7 = alloca i32, align 4
  %8 = alloca i32, align 4
  %9 = alloca i32, align 4
  %10 = alloca i8, align 1
  %11 = alloca i8, align 1
  %12 = alloca i32, align 4
  store ptr %0, ptr %4, align 8, !tbaa !50
  store i32 %1, ptr %5, align 4, !tbaa !8
  store ptr %2, ptr %6, align 8, !tbaa !57
  call void @llvm.lifetime.start.p0(i64 4, ptr %7) #8
  call void @llvm.lifetime.start.p0(i64 4, ptr %8) #8
  call void @llvm.lifetime.start.p0(i64 4, ptr %9) #8
  call void @llvm.lifetime.start.p0(i64 1, ptr %10) #8
  store i8 0, ptr %10, align 1, !tbaa !51
  call void @llvm.lifetime.start.p0(i64 1, ptr %11) #8
  store i8 0, ptr %11, align 1, !tbaa !51
  %13 = load ptr, ptr %6, align 8, !tbaa !57
  %14 = icmp eq ptr %13, null
  br i1 %14, label %21, label %15

15:                                               ; preds = %3
  %16 = load ptr, ptr %4, align 8, !tbaa !50
  %17 = load i32, ptr %5, align 4, !tbaa !8
  %18 = load ptr, ptr %6, align 8, !tbaa !57
  %19 = call noundef signext i8 @_ZL14prepareReorderPKhiPiPhS2_(ptr noundef %16, i32 noundef %17, ptr noundef %18, ptr noundef %10, ptr noundef %11)
  %20 = icmp ne i8 %19, 0
  br i1 %20, label %22, label %21

21:                                               ; preds = %15, %3
  store i32 1, ptr %12, align 4
  br label %125

22:                                               ; preds = %15
  %23 = load i8, ptr %10, align 1, !tbaa !51
  %24 = zext i8 %23 to i32
  %25 = load i8, ptr %11, align 1, !tbaa !51
  %26 = zext i8 %25 to i32
  %27 = icmp eq i32 %24, %26
  br i1 %27, label %28, label %34

28:                                               ; preds = %22
  %29 = load i8, ptr %10, align 1, !tbaa !51
  %30 = zext i8 %29 to i32
  %31 = and i32 %30, 1
  %32 = icmp eq i32 %31, 0
  br i1 %32, label %33, label %34

33:                                               ; preds = %28
  store i32 1, ptr %12, align 4
  br label %125

34:                                               ; preds = %28, %22
  %35 = load i8, ptr %10, align 1, !tbaa !51
  %36 = zext i8 %35 to i32
  %37 = or i32 %36, 1
  %38 = trunc i32 %37 to i8
  store i8 %38, ptr %10, align 1, !tbaa !51
  br label %39

39:                                               ; preds = %117, %34
  store i32 0, ptr %7, align 4, !tbaa !8
  br label %40

40:                                               ; preds = %115, %39
  br label %41

41:                                               ; preds = %57, %40
  %42 = load i32, ptr %7, align 4, !tbaa !8
  %43 = load i32, ptr %5, align 4, !tbaa !8
  %44 = icmp slt i32 %42, %43
  br i1 %44, label %45, label %55

45:                                               ; preds = %41
  %46 = load ptr, ptr %4, align 8, !tbaa !50
  %47 = load i32, ptr %7, align 4, !tbaa !8
  %48 = sext i32 %47 to i64
  %49 = getelementptr inbounds i8, ptr %46, i64 %48
  %50 = load i8, ptr %49, align 1, !tbaa !51
  %51 = zext i8 %50 to i32
  %52 = load i8, ptr %11, align 1, !tbaa !51
  %53 = zext i8 %52 to i32
  %54 = icmp slt i32 %51, %53
  br label %55

55:                                               ; preds = %45, %41
  %56 = phi i1 [ false, %41 ], [ %54, %45 ]
  br i1 %56, label %57, label %60

57:                                               ; preds = %55
  %58 = load i32, ptr %7, align 4, !tbaa !8
  %59 = add nsw i32 %58, 1
  store i32 %59, ptr %7, align 4, !tbaa !8
  br label %41, !llvm.loop !88

60:                                               ; preds = %55
  %61 = load i32, ptr %7, align 4, !tbaa !8
  %62 = load i32, ptr %5, align 4, !tbaa !8
  %63 = icmp sge i32 %61, %62
  br i1 %63, label %64, label %65

64:                                               ; preds = %60
  br label %116

65:                                               ; preds = %60
  %66 = load i32, ptr %7, align 4, !tbaa !8
  store i32 %66, ptr %8, align 4, !tbaa !8
  br label %67

67:                                               ; preds = %84, %65
  %68 = load i32, ptr %8, align 4, !tbaa !8
  %69 = add nsw i32 %68, 1
  store i32 %69, ptr %8, align 4, !tbaa !8
  %70 = load i32, ptr %5, align 4, !tbaa !8
  %71 = icmp slt i32 %69, %70
  br i1 %71, label %72, label %82

72:                                               ; preds = %67
  %73 = load ptr, ptr %4, align 8, !tbaa !50
  %74 = load i32, ptr %8, align 4, !tbaa !8
  %75 = sext i32 %74 to i64
  %76 = getelementptr inbounds i8, ptr %73, i64 %75
  %77 = load i8, ptr %76, align 1, !tbaa !51
  %78 = zext i8 %77 to i32
  %79 = load i8, ptr %11, align 1, !tbaa !51
  %80 = zext i8 %79 to i32
  %81 = icmp sge i32 %78, %80
  br label %82

82:                                               ; preds = %72, %67
  %83 = phi i1 [ false, %67 ], [ %81, %72 ]
  br i1 %83, label %84, label %85

84:                                               ; preds = %82
  br label %67, !llvm.loop !89

85:                                               ; preds = %82
  %86 = load i32, ptr %7, align 4, !tbaa !8
  %87 = load i32, ptr %8, align 4, !tbaa !8
  %88 = add nsw i32 %86, %87
  %89 = sub nsw i32 %88, 1
  store i32 %89, ptr %9, align 4, !tbaa !8
  br label %90

90:                                               ; preds = %102, %85
  %91 = load i32, ptr %9, align 4, !tbaa !8
  %92 = load ptr, ptr %6, align 8, !tbaa !57
  %93 = load i32, ptr %7, align 4, !tbaa !8
  %94 = sext i32 %93 to i64
  %95 = getelementptr inbounds i32, ptr %92, i64 %94
  %96 = load i32, ptr %95, align 4, !tbaa !8
  %97 = sub nsw i32 %91, %96
  %98 = load ptr, ptr %6, align 8, !tbaa !57
  %99 = load i32, ptr %7, align 4, !tbaa !8
  %100 = sext i32 %99 to i64
  %101 = getelementptr inbounds i32, ptr %98, i64 %100
  store i32 %97, ptr %101, align 4, !tbaa !8
  br label %102

102:                                              ; preds = %90
  %103 = load i32, ptr %7, align 4, !tbaa !8
  %104 = add nsw i32 %103, 1
  store i32 %104, ptr %7, align 4, !tbaa !8
  %105 = load i32, ptr %8, align 4, !tbaa !8
  %106 = icmp slt i32 %104, %105
  br i1 %106, label %90, label %107, !llvm.loop !90

107:                                              ; preds = %102
  %108 = load i32, ptr %8, align 4, !tbaa !8
  %109 = load i32, ptr %5, align 4, !tbaa !8
  %110 = icmp eq i32 %108, %109
  br i1 %110, label %111, label %112

111:                                              ; preds = %107
  br label %116

112:                                              ; preds = %107
  %113 = load i32, ptr %8, align 4, !tbaa !8
  %114 = add nsw i32 %113, 1
  store i32 %114, ptr %7, align 4, !tbaa !8
  br label %115

115:                                              ; preds = %112
  br label %40, !llvm.loop !91

116:                                              ; preds = %111, %64
  br label %117

117:                                              ; preds = %116
  %118 = load i8, ptr %11, align 1, !tbaa !51
  %119 = add i8 %118, -1
  store i8 %119, ptr %11, align 1, !tbaa !51
  %120 = zext i8 %119 to i32
  %121 = load i8, ptr %10, align 1, !tbaa !51
  %122 = zext i8 %121 to i32
  %123 = icmp sge i32 %120, %122
  br i1 %123, label %39, label %124, !llvm.loop !92

124:                                              ; preds = %117
  store i32 0, ptr %12, align 4
  br label %125

125:                                              ; preds = %124, %33, %21
  call void @llvm.lifetime.end.p0(i64 1, ptr %11) #8
  call void @llvm.lifetime.end.p0(i64 1, ptr %10) #8
  call void @llvm.lifetime.end.p0(i64 4, ptr %9) #8
  call void @llvm.lifetime.end.p0(i64 4, ptr %8) #8
  call void @llvm.lifetime.end.p0(i64 4, ptr %7) #8
  %126 = load i32, ptr %12, align 4
  switch i32 %126, label %128 [
    i32 0, label %127
    i32 1, label %127
  ]

127:                                              ; preds = %125, %125
  ret void

128:                                              ; preds = %125
  unreachable
}