; Function Attrs: mustprogress nofree norecurse nosync nounwind memory(argmem: readwrite) uwtable
define void @ubidi_reorderLogical_77(ptr noundef readonly %0, i32 noundef %1, ptr noundef %2) local_unnamed_addr #6 {
  %4 = icmp eq ptr %2, null
  br i1 %4, label %_ZL14prepareReorderPKhiPiPhS2_.exit.thread, label %5

5:                                                ; preds = %3
  %6 = icmp eq ptr %0, null
  %7 = icmp slt i32 %1, 1
  %or.cond.i = or i1 %6, %7
  br i1 %or.cond.i, label %_ZL14prepareReorderPKhiPiPhS2_.exit.thread, label %.preheader.preheader.i

.preheader.preheader.i:                           ; preds = %5
  %8 = zext nneg i32 %1 to i64
  br label %.preheader.i

.preheader.i:                                     ; preds = %12, %.preheader.preheader.i
  %indvars.iv.i = phi i64 [ %8, %.preheader.preheader.i ], [ %indvars.iv.next.i, %12 ]
  %.037.i = phi i8 [ 0, %.preheader.preheader.i ], [ %.1.i, %12 ]
  %.02436.i = phi i8 [ 126, %.preheader.preheader.i ], [ %spec.select.i, %12 ]
  %indvars.iv.next.i = add nsw i64 %indvars.iv.i, -1
  %9 = getelementptr inbounds nuw i8, ptr %0, i64 %indvars.iv.next.i
  %10 = load i8, ptr %9, align 1, !tbaa !47
  %11 = icmp ugt i8 %10, 126
  br i1 %11, label %_ZL14prepareReorderPKhiPiPhS2_.exit.thread, label %12

12:                                               ; preds = %.preheader.i
  %spec.select.i = tail call i8 @llvm.umin.i8(i8 %10, i8 %.02436.i)
  %.1.i = tail call i8 @llvm.umax.i8(i8 %10, i8 %.037.i)
  %13 = icmp samesign ugt i64 %indvars.iv.i, 1
  br i1 %13, label %.preheader.i, label %.lr.ph.i, !llvm.loop !79

.lr.ph.i:                                         ; preds = %12, %.lr.ph.i
  %indvars.iv40.i = phi i64 [ %indvars.iv.next41.i, %.lr.ph.i ], [ %8, %12 ]
  %indvars.iv.next41.i = add nsw i64 %indvars.iv40.i, -1
  %14 = getelementptr inbounds nuw i32, ptr %2, i64 %indvars.iv.next41.i
  %15 = trunc nuw nsw i64 %indvars.iv.next41.i to i32
  store i32 %15, ptr %14, align 4, !tbaa !53
  %16 = icmp sgt i64 %indvars.iv40.i, 1
  br i1 %16, label %.lr.ph.i, label %_ZL14prepareReorderPKhiPiPhS2_.exit, !llvm.loop !80

_ZL14prepareReorderPKhiPiPhS2_.exit:              ; preds = %.lr.ph.i
  %17 = icmp eq i8 %spec.select.i, %.1.i
  %18 = and i8 %spec.select.i, 1
  %19 = icmp eq i8 %18, 0
  %or.cond = and i1 %17, %19
  br i1 %or.cond, label %_ZL14prepareReorderPKhiPiPhS2_.exit.thread, label %20

20:                                               ; preds = %_ZL14prepareReorderPKhiPiPhS2_.exit
  %21 = or i8 %spec.select.i, 1
  %22 = icmp sgt i32 %1, 0
  br i1 %22, label %.lr.ph.lr.ph.us.preheader, label %_ZL14prepareReorderPKhiPiPhS2_.exit.thread

.lr.ph.lr.ph.us.preheader:                        ; preds = %20
  %23 = zext nneg i32 %1 to i64
  br label %.lr.ph.lr.ph.us

.lr.ph.lr.ph.us:                                  ; preds = %.lr.ph.lr.ph.us.preheader, %.critedge.thread.us
  %.045.us = phi i8 [ %44, %.critedge.thread.us ], [ %.1.i, %.lr.ph.lr.ph.us.preheader ]
  br label %.lr.ph.us

24:                                               ; preds = %.lr.ph.us, %45
  %indvars.iv67.in = phi i32 [ %.057.us, %.lr.ph.us ], [ %indvars.iv67, %45 ]
  %indvars.iv = phi i64 [ %48, %.lr.ph.us ], [ %indvars.iv.next, %45 ]
  %indvars.iv67 = add i32 %indvars.iv67.in, 1
  %25 = getelementptr inbounds i8, ptr %0, i64 %indvars.iv
  %26 = load i8, ptr %25, align 1, !tbaa !47
  %27 = icmp ult i8 %26, %.045.us
  br i1 %27, label %45, label %.critedge.preheader.us

.critedge.us:                                     ; preds = %.critedge.preheader.us, %29
  %indvars.iv65 = phi i64 [ %indvars.iv, %.critedge.preheader.us ], [ %indvars.iv.next66, %29 ]
  %indvars.iv.next66 = add nsw i64 %indvars.iv65, 1
  %28 = icmp slt i64 %indvars.iv.next66, %23
  br i1 %28, label %29, label %.critedge2.us

29:                                               ; preds = %.critedge.us
  %30 = getelementptr inbounds i8, ptr %0, i64 %indvars.iv.next66
  %31 = load i8, ptr %30, align 1, !tbaa !47
  %.not36.us = icmp ult i8 %31, %.045.us
  br i1 %.not36.us, label %.critedge2.us.split.loop.exit, label %.critedge.us, !llvm.loop !81

.critedge2.us.split.loop.exit:                    ; preds = %29
  %32 = trunc nsw i64 %indvars.iv.next66 to i32
  br label %.critedge2.us

.critedge2.us:                                    ; preds = %.critedge.us, %.critedge2.us.split.loop.exit
  %.lcssa = phi i32 [ %32, %.critedge2.us.split.loop.exit ], [ %smax, %.critedge.us ]
  %.lcssa80 = trunc i64 %indvars.iv65 to i32
  %33 = add i32 %.lcssa80, %47
  %sext = shl i64 %indvars.iv65, 32
  %34 = ashr exact i64 %sext, 32
  br label %35

35:                                               ; preds = %35, %.critedge2.us
  %indvars.iv73 = phi i64 [ %indvars.iv.next74, %35 ], [ %indvars.iv, %.critedge2.us ]
  %36 = getelementptr inbounds i32, ptr %2, i64 %indvars.iv73
  %37 = load i32, ptr %36, align 4, !tbaa !53
  %38 = sub i32 %33, %37
  store i32 %38, ptr %36, align 4, !tbaa !53
  %indvars.iv.next74 = add nsw i64 %indvars.iv73, 1
  %39 = icmp slt i64 %indvars.iv73, %34
  br i1 %39, label %35, label %40, !llvm.loop !82

40:                                               ; preds = %35
  %41 = icmp ne i32 %.lcssa, %1
  %42 = add nsw i32 %.lcssa80, 2
  %43 = icmp slt i32 %42, %1
  %or.cond58 = select i1 %41, i1 %43, i1 false
  br i1 %or.cond58, label %.lr.ph.us, label %.critedge.thread.us, !llvm.loop !83

.critedge.thread.us:                              ; preds = %40, %45
  %44 = add i8 %.045.us, -1
  %.not37.us = icmp ult i8 %44, %21
  br i1 %.not37.us, label %_ZL14prepareReorderPKhiPiPhS2_.exit.thread, label %.lr.ph.lr.ph.us, !llvm.loop !84

45:                                               ; preds = %24
  %indvars.iv.next = add nsw i64 %indvars.iv, 1
  %46 = icmp slt i64 %indvars.iv.next, %23
  br i1 %46, label %24, label %.critedge.thread.us, !llvm.loop !85

.critedge.preheader.us:                           ; preds = %24
  %47 = trunc nsw i64 %indvars.iv to i32
  %smax = tail call i32 @llvm.smax.i32(i32 %1, i32 %indvars.iv67)
  br label %.critedge.us

.lr.ph.us:                                        ; preds = %40, %.lr.ph.lr.ph.us
  %.057.us = phi i32 [ 0, %.lr.ph.lr.ph.us ], [ %42, %40 ]
  %48 = sext i32 %.057.us to i64
  br label %24

_ZL14prepareReorderPKhiPiPhS2_.exit.thread:       ; preds = %.preheader.i, %.critedge.thread.us, %20, %5, %_ZL14prepareReorderPKhiPiPhS2_.exit, %3
  ret void
}